target datalayout = "e-m:e-p270:32:32-p271:32:32-p272:64:64-i64:64-i128:128-f80:128-n8:16:32:64-S128"
target triple = "x86_64-pc-linux-gnu"

%class.JVMFlagLookup = type { [277 x i16], [1223 x i16], [1223 x i16] }
%class.JVMFlag = type { ptr, ptr, i32, i32 }

@_ZN7JVMFlag5flagsE = external global ptr, align 8

; Function Attrs: mustprogress nounwind uwtable
define linkonce_odr hidden noundef ptr @_ZNK7JVMFlag4nameEv(ptr noundef nonnull align 8 dereferenceable(24) %0) #1 comdat align 2 {
  %2 = alloca ptr, align 8
  store ptr %0, ptr %2, align 8
  %3 = load ptr, ptr %2, align 8
  %4 = getelementptr inbounds %class.JVMFlag, ptr %3, i32 0, i32 1
  %5 = load ptr, ptr %4, align 8
  ret ptr %5
}

; Function Attrs: mustprogress nounwind uwtable
define linkonce_odr hidden noundef i32 @_ZN13JVMFlagLookup9hash_codeEPKcm(ptr noundef %0, i64 noundef %1) #1 comdat align 2 {
  %3 = alloca ptr, align 8
  %4 = alloca i64, align 8
  %5 = alloca i32, align 4
  store ptr %0, ptr %3, align 8
  store i64 %1, ptr %4, align 8
  store i32 0, ptr %5, align 4
  br label %6

6:                                                ; preds = %10, %2
  %7 = load i64, ptr %4, align 8
  %8 = add i64 %7, -1
  store i64 %8, ptr %4, align 8
  %9 = icmp ugt i64 %7, 0
  br i1 %9, label %10, label %19

10:                                               ; preds = %6
  %11 = load i32, ptr %5, align 4
  %12 = mul i32 31, %11
  %13 = load ptr, ptr %3, align 8
  %14 = load i8, ptr %13, align 1
  %15 = sext i8 %14 to i32
  %16 = add i32 %12, %15
  store i32 %16, ptr %5, align 4
  %17 = load ptr, ptr %3, align 8
  %18 = getelementptr inbounds i8, ptr %17, i32 1
  store ptr %18, ptr %3, align 8
  br label %6, !llvm.loop !8

19:                                               ; preds = %6
  %20 = load i32, ptr %5, align 4
  ret i32 %20
}

; Function Attrs: mustprogress nounwind uwtable
define hidden noundef ptr @_ZNK13JVMFlagLookup9find_implEPKcm(ptr noundef nonnull align 2 dereferenceable(5446) %0, ptr noundef %1, i64 noundef %2) #1 align 2 {
  %4 = alloca ptr, align 8
  %5 = alloca ptr, align 8
  %6 = alloca ptr, align 8
  %7 = alloca i64, align 8
  %8 = alloca i32, align 4
  %9 = alloca i32, align 4
  %10 = alloca i32, align 4
  %11 = alloca ptr, align 8
  store ptr %0, ptr %5, align 8
  store ptr %1, ptr %6, align 8
  store i64 %2, ptr %7, align 8
  %12 = load ptr, ptr %5, align 8
  %13 = load ptr, ptr %6, align 8
  %14 = load i64, ptr %7, align 8
  %15 = call noundef i32 @_ZN13JVMFlagLookup9hash_codeEPKcm(ptr noundef %13, i64 noundef %14)
  store i32 %15, ptr %8, align 4
  %16 = load i32, ptr %8, align 4
  %17 = urem i32 %16, 277
  store i32 %17, ptr %9, align 4
  %18 = getelementptr inbounds %class.JVMFlagLookup, ptr %12, i32 0, i32 0
  %19 = load i32, ptr %9, align 4
  %20 = sext i32 %19 to i64
  %21 = getelementptr inbounds [277 x i16], ptr %18, i64 0, i64 %20
  %22 = load i16, ptr %21, align 2
  %23 = sext i16 %22 to i32
  store i32 %23, ptr %10, align 4
  br label %24

24:                                               ; preds = %61, %3
  %25 = load i32, ptr %10, align 4
  %26 = icmp sge i32 %25, 0
  br i1 %26, label %27, label %68

27:                                               ; preds = %24
  %28 = getelementptr inbounds %class.JVMFlagLookup, ptr %12, i32 0, i32 2
  %29 = load i32, ptr %10, align 4
  %30 = sext i32 %29 to i64
  %31 = getelementptr inbounds [1223 x i16], ptr %28, i64 0, i64 %30
  %32 = load i16, ptr %31, align 2
  %33 = zext i16 %32 to i32
  %34 = load i32, ptr %8, align 4
  %35 = trunc i32 %34 to i16
  %36 = zext i16 %35 to i32
  %37 = icmp eq i32 %33, %36
  br i1 %37, label %38, label %61

38:                                               ; preds = %27
  %39 = load ptr, ptr @_ZN7JVMFlag5flagsE, align 8
  %40 = load i32, ptr %10, align 4
  %41 = sext i32 %40 to i64
  %42 = getelementptr inbounds %class.JVMFlag, ptr %39, i64 %41
  store ptr %42, ptr %11, align 8
  %43 = load ptr, ptr %6, align 8
  %44 = load ptr, ptr %11, align 8
  %45 = call noundef ptr @_ZNK7JVMFlag4nameEv(ptr noundef nonnull align 8 dereferenceable(24) %44)
  %46 = load i64, ptr %7, align 8
  %47 = call i32 @strncmp(ptr noundef %43, ptr noundef %45, i64 noundef %46) #3
  %48 = icmp eq i32 %47, 0
  br i1 %48, label %49, label %60

49:                                               ; preds = %38
  %50 = load ptr, ptr %11, align 8
  %51 = call noundef ptr @_ZNK7JVMFlag4nameEv(ptr noundef nonnull align 8 dereferenceable(24) %50)
  %52 = load i64, ptr %7, align 8
  %53 = getelementptr inbounds i8, ptr %51, i64 %52
  %54 = load i8, ptr %53, align 1
  %55 = sext i8 %54 to i32
  %56 = icmp eq i32 %55, 0
  br i1 %56, label %57, label %59

57:                                               ; preds = %49
  %58 = load ptr, ptr %11, align 8
  store ptr %58, ptr %4, align 8
  br label %69

59:                                               ; preds = %49
  br label %60

60:                                               ; preds = %59, %38
  br label %61

61:                                               ; preds = %60, %27
  %62 = getelementptr inbounds %class.JVMFlagLookup, ptr %12, i32 0, i32 1
  %63 = load i32, ptr %10, align 4
  %64 = sext i32 %63 to i64
  %65 = getelementptr inbounds [1223 x i16], ptr %62, i64 0, i64 %64
  %66 = load i16, ptr %65, align 2
  %67 = sext i16 %66 to i32
  store i32 %67, ptr %10, align 4
  br label %24, !llvm.loop !6

68:                                               ; preds = %24
  store ptr null, ptr %4, align 8
  br label %69

69:                                               ; preds = %68, %57
  %70 = load ptr, ptr %4, align 8
  ret ptr %70
}

; Function Attrs: mustprogress nounwind uwtable
define hidden noundef ptr @_ZN13JVMFlagLookup4findEPKcm(ptr noundef %0, i64 noundef %1) #1 align 2 {
  %3 = alloca ptr, align 8
  %4 = alloca i64, align 8
  store ptr %0, ptr %3, align 8
  store i64 %1, ptr %4, align 8
  %5 = load ptr, ptr %3, align 8
  %6 = load i64, ptr %4, align 8
  %7 = call noundef ptr @_ZNK13JVMFlagLookup9find_implEPKcm(ptr noundef nonnull align 2 dereferenceable(5446) @_ZL18_flag_lookup_table, ptr noundef %5, i64 noundef %6)
  ret ptr %7
}