; Function Attrs: mustprogress nofree nounwind willreturn memory(read, inaccessiblemem: none) uwtable
define hidden noundef ptr @_ZN13JVMFlagLookup4findEPKcm(ptr nocapture noundef readonly %0, i64 noundef %1) local_unnamed_addr #0 align 2 {
  %.not6.i.i = icmp eq i64 %1, 0
  br i1 %.not6.i.i, label %_ZN13JVMFlagLookup9hash_codeEPKcm.exit.i, label %.lr.ph.i.i

.lr.ph.i.i:                                       ; preds = %2, %.lr.ph.i.i
  %.09.i.i = phi i32 [ %7, %.lr.ph.i.i ], [ 0, %2 ]
  %.048.i.i = phi i64 [ %3, %.lr.ph.i.i ], [ %1, %2 ]
  %.057.i.i = phi ptr [ %8, %.lr.ph.i.i ], [ %0, %2 ]
  %3 = add i64 %.048.i.i, -1
  %4 = mul i32 %.09.i.i, 31
  %5 = load i8, ptr %.057.i.i, align 1
  %6 = sext i8 %5 to i32
  %7 = add i32 %4, %6
  %8 = getelementptr inbounds i8, ptr %.057.i.i, i64 1
  %.not.i.i = icmp eq i64 %3, 0
  br i1 %.not.i.i, label %_ZN13JVMFlagLookup9hash_codeEPKcm.exit.i, label %.lr.ph.i.i, !llvm.loop !6

_ZN13JVMFlagLookup9hash_codeEPKcm.exit.i:         ; preds = %.lr.ph.i.i, %2
  %.0.lcssa.i.i = phi i32 [ 0, %2 ], [ %7, %.lr.ph.i.i ]
  %9 = urem i32 %.0.lcssa.i.i, 277
  %10 = zext nneg i32 %9 to i64
  %11 = getelementptr inbounds [277 x i16], ptr @_ZL18_flag_lookup_table, i64 0, i64 %10
  %.016.in17.i = load i16, ptr %11, align 2
  %12 = icmp sgt i16 %.016.in17.i, -1
  br i1 %12, label %.lr.ph.i, label %_ZNK13JVMFlagLookup9find_implEPKcm.exit

.lr.ph.i:                                         ; preds = %_ZN13JVMFlagLookup9hash_codeEPKcm.exit.i
  %13 = trunc i32 %.0.lcssa.i.i to i16
  %14 = load ptr, ptr @_ZN7JVMFlag5flagsE, align 8
  br label %15

15:                                               ; preds = %29, %.lr.ph.i
  %.016.in18.i = phi i16 [ %.016.in17.i, %.lr.ph.i ], [ %.016.in.i, %29 ]
  %.016.i = zext nneg i16 %.016.in18.i to i64
  %16 = getelementptr inbounds [1223 x i16], ptr getelementptr inbounds (i8, ptr @_ZL18_flag_lookup_table, i64 3000), i64 0, i64 %.016.i
  %17 = load i16, ptr %16, align 2
  %18 = icmp eq i16 %17, %13
  br i1 %18, label %19, label %29

19:                                               ; preds = %15
  %20 = getelementptr inbounds %class.JVMFlag, ptr %14, i64 %.016.i
  %21 = getelementptr inbounds i8, ptr %20, i64 8
  %22 = load ptr, ptr %21, align 8
  %23 = tail call i32 @strncmp(ptr noundef readonly %0, ptr noundef %22, i64 noundef %1) #2
  %24 = icmp eq i32 %23, 0
  br i1 %24, label %25, label %29

25:                                               ; preds = %19
  %26 = getelementptr inbounds i8, ptr %22, i64 %1
  %27 = load i8, ptr %26, align 1
  %28 = icmp eq i8 %27, 0
  br i1 %28, label %_ZNK13JVMFlagLookup9find_implEPKcm.exit, label %29

29:                                               ; preds = %25, %19, %15
  %30 = getelementptr inbounds [1223 x i16], ptr getelementptr inbounds (i8, ptr @_ZL18_flag_lookup_table, i64 554), i64 0, i64 %.016.i
  %.016.in.i = load i16, ptr %30, align 2
  %31 = icmp sgt i16 %.016.in.i, -1
  br i1 %31, label %15, label %_ZNK13JVMFlagLookup9find_implEPKcm.exit, !llvm.loop !8

_ZNK13JVMFlagLookup9find_implEPKcm.exit:          ; preds = %25, %29, %_ZN13JVMFlagLookup9hash_codeEPKcm.exit.i
  %.0.i = phi ptr [ null, %_ZN13JVMFlagLookup9hash_codeEPKcm.exit.i ], [ %20, %25 ], [ null, %29 ]
  ret ptr %.0.i
}